; ModuleID = '9/10.c'
source_filename = "9/10.c"
target datalayout = "e-m:e-p270:32:32-p271:32:32-p272:64:64-i64:64-f80:128-n8:16:32:64-S128"
target triple = "x86_64-pc-linux-gnu"

%struct.anon = type { [100 x i8], i32, i32 }

@.str = private unnamed_addr constant [3 x i8] c"%d\00", align 1
@.str.1 = private unnamed_addr constant [5 x i8] c"%s%d\00", align 1
@.str.2 = private unnamed_addr constant [4 x i8] c"%s\0A\00", align 1

; Function Attrs: noinline nounwind uwtable
define dso_local i32 @main() #0 {
  %1 = alloca i32, align 4
  %2 = alloca [100 x i8], align 16
  %3 = alloca i32, align 4
  %4 = alloca i32, align 4
  %5 = alloca i32, align 4
  %6 = alloca i32, align 4
  %7 = alloca i32, align 4
  %8 = alloca [1000 x %struct.anon], align 16
  %9 = alloca [1000 x %struct.anon], align 16
  store i32 0, i32* %1, align 4
  store i32 0, i32* %5, align 4
  store i32 0, i32* %6, align 4
  %10 = call i32 (i8*, ...) @__isoc99_scanf(i8* getelementptr inbounds ([3 x i8], [3 x i8]* @.str, i64 0, i64 0), i32* %3)
  store i32 0, i32* %4, align 4
  br label %11

11:                                               ; preds = %43, %0
  %12 = load i32, i32* %4, align 4
  %13 = load i32, i32* %3, align 4
  %14 = icmp slt i32 %12, %13
  br i1 %14, label %15, label %46

15:                                               ; preds = %11
  %16 = load i32, i32* %4, align 4
  %17 = sext i32 %16 to i64
  %18 = getelementptr inbounds [1000 x %struct.anon], [1000 x %struct.anon]* %8, i64 0, i64 %17
  %19 = getelementptr inbounds %struct.anon, %struct.anon* %18, i32 0, i32 0
  %20 = getelementptr inbounds [100 x i8], [100 x i8]* %19, i64 0, i64 0
  %21 = load i32, i32* %4, align 4
  %22 = sext i32 %21 to i64
  %23 = getelementptr inbounds [1000 x %struct.anon], [1000 x %struct.anon]* %8, i64 0, i64 %22
  %24 = getelementptr inbounds %struct.anon, %struct.anon* %23, i32 0, i32 1
  %25 = call i32 (i8*, ...) @__isoc99_scanf(i8* getelementptr inbounds ([5 x i8], [5 x i8]* @.str.1, i64 0, i64 0), i8* %20, i32* %24)
  %26 = load i32, i32* %4, align 4
  %27 = sext i32 %26 to i64
  %28 = getelementptr inbounds [1000 x %struct.anon], [1000 x %struct.anon]* %8, i64 0, i64 %27
  %29 = getelementptr inbounds %struct.anon, %struct.anon* %28, i32 0, i32 1
  %30 = load i32, i32* %29, align 4
  %31 = icmp sge i32 %30, 60
  br i1 %31, label %32, label %37

32:                                               ; preds = %15
  %33 = load i32, i32* %4, align 4
  %34 = sext i32 %33 to i64
  %35 = getelementptr inbounds [1000 x %struct.anon], [1000 x %struct.anon]* %8, i64 0, i64 %34
  %36 = getelementptr inbounds %struct.anon, %struct.anon* %35, i32 0, i32 2
  store i32 1, i32* %36, align 4
  br label %42

37:                                               ; preds = %15
  %38 = load i32, i32* %4, align 4
  %39 = sext i32 %38 to i64
  %40 = getelementptr inbounds [1000 x %struct.anon], [1000 x %struct.anon]* %8, i64 0, i64 %39
  %41 = getelementptr inbounds %struct.anon, %struct.anon* %40, i32 0, i32 2
  store i32 0, i32* %41, align 4
  br label %42

42:                                               ; preds = %37, %32
  br label %43

43:                                               ; preds = %42
  %44 = load i32, i32* %4, align 4
  %45 = add nsw i32 %44, 1
  store i32 %45, i32* %4, align 4
  br label %11

46:                                               ; preds = %11
  store i32 0, i32* %4, align 4
  br label %47

47:                                               ; preds = %84, %46
  %48 = load i32, i32* %4, align 4
  %49 = load i32, i32* %3, align 4
  %50 = icmp slt i32 %48, %49
  br i1 %50, label %51, label %87

51:                                               ; preds = %47
  %52 = load i32, i32* %4, align 4
  %53 = sext i32 %52 to i64
  %54 = getelementptr inbounds [1000 x %struct.anon], [1000 x %struct.anon]* %8, i64 0, i64 %53
  %55 = getelementptr inbounds %struct.anon, %struct.anon* %54, i32 0, i32 2
  %56 = load i32, i32* %55, align 4
  %57 = icmp eq i32 %56, 1
  br i1 %57, label %58, label %83

58:                                               ; preds = %51
  %59 = load i32, i32* %5, align 4
  %60 = sext i32 %59 to i64
  %61 = getelementptr inbounds [1000 x %struct.anon], [1000 x %struct.anon]* %9, i64 0, i64 %60
  %62 = getelementptr inbounds %struct.anon, %struct.anon* %61, i32 0, i32 0
  %63 = getelementptr inbounds [100 x i8], [100 x i8]* %62, i64 0, i64 0
  %64 = load i32, i32* %4, align 4
  %65 = sext i32 %64 to i64
  %66 = getelementptr inbounds [1000 x %struct.anon], [1000 x %struct.anon]* %8, i64 0, i64 %65
  %67 = getelementptr inbounds %struct.anon, %struct.anon* %66, i32 0, i32 0
  %68 = getelementptr inbounds [100 x i8], [100 x i8]* %67, i64 0, i64 0
  %69 = call i8* @strcpy(i8* %63, i8* %68) #3
  %70 = load i32, i32* %4, align 4
  %71 = sext i32 %70 to i64
  %72 = getelementptr inbounds [1000 x %struct.anon], [1000 x %struct.anon]* %8, i64 0, i64 %71
  %73 = getelementptr inbounds %struct.anon, %struct.anon* %72, i32 0, i32 1
  %74 = load i32, i32* %73, align 4
  %75 = load i32, i32* %5, align 4
  %76 = sext i32 %75 to i64
  %77 = getelementptr inbounds [1000 x %struct.anon], [1000 x %struct.anon]* %9, i64 0, i64 %76
  %78 = getelementptr inbounds %struct.anon, %struct.anon* %77, i32 0, i32 1
  store i32 %74, i32* %78, align 4
  %79 = load i32, i32* %5, align 4
  %80 = add nsw i32 %79, 1
  store i32 %80, i32* %5, align 4
  %81 = load i32, i32* %6, align 4
  %82 = add nsw i32 %81, 1
  store i32 %82, i32* %6, align 4
  br label %83

83:                                               ; preds = %58, %51
  br label %84

84:                                               ; preds = %83
  %85 = load i32, i32* %4, align 4
  %86 = add nsw i32 %85, 1
  store i32 %86, i32* %4, align 4
  br label %47

87:                                               ; preds = %47
  %88 = load i32, i32* %3, align 4
  %89 = sub nsw i32 %88, 1
  store i32 %89, i32* %4, align 4
  br label %90

90:                                               ; preds = %165, %87
  %91 = load i32, i32* %4, align 4
  %92 = icmp sgt i32 %91, 0
  br i1 %92, label %93, label %168

93:                                               ; preds = %90
  store i32 0, i32* %5, align 4
  br label %94

94:                                               ; preds = %161, %93
  %95 = load i32, i32* %5, align 4
  %96 = load i32, i32* %4, align 4
  %97 = icmp slt i32 %95, %96
  br i1 %97, label %98, label %164

98:                                               ; preds = %94
  %99 = load i32, i32* %5, align 4
  %100 = sext i32 %99 to i64
  %101 = getelementptr inbounds [1000 x %struct.anon], [1000 x %struct.anon]* %9, i64 0, i64 %100
  %102 = getelementptr inbounds %struct.anon, %struct.anon* %101, i32 0, i32 1
  %103 = load i32, i32* %102, align 4
  %104 = load i32, i32* %5, align 4
  %105 = add nsw i32 %104, 1
  %106 = sext i32 %105 to i64
  %107 = getelementptr inbounds [1000 x %struct.anon], [1000 x %struct.anon]* %9, i64 0, i64 %106
  %108 = getelementptr inbounds %struct.anon, %struct.anon* %107, i32 0, i32 1
  %109 = load i32, i32* %108, align 4
  %110 = icmp slt i32 %103, %109
  br i1 %110, label %111, label %160

111:                                              ; preds = %98
  %112 = load i32, i32* %5, align 4
  %113 = sext i32 %112 to i64
  %114 = getelementptr inbounds [1000 x %struct.anon], [1000 x %struct.anon]* %9, i64 0, i64 %113
  %115 = getelementptr inbounds %struct.anon, %struct.anon* %114, i32 0, i32 1
  %116 = load i32, i32* %115, align 4
  store i32 %116, i32* %7, align 4
  %117 = load i32, i32* %5, align 4
  %118 = add nsw i32 %117, 1
  %119 = sext i32 %118 to i64
  %120 = getelementptr inbounds [1000 x %struct.anon], [1000 x %struct.anon]* %9, i64 0, i64 %119
  %121 = getelementptr inbounds %struct.anon, %struct.anon* %120, i32 0, i32 1
  %122 = load i32, i32* %121, align 4
  %123 = load i32, i32* %5, align 4
  %124 = sext i32 %123 to i64
  %125 = getelementptr inbounds [1000 x %struct.anon], [1000 x %struct.anon]* %9, i64 0, i64 %124
  %126 = getelementptr inbounds %struct.anon, %struct.anon* %125, i32 0, i32 1
  store i32 %122, i32* %126, align 4
  %127 = load i32, i32* %7, align 4
  %128 = load i32, i32* %5, align 4
  %129 = add nsw i32 %128, 1
  %130 = sext i32 %129 to i64
  %131 = getelementptr inbounds [1000 x %struct.anon], [1000 x %struct.anon]* %9, i64 0, i64 %130
  %132 = getelementptr inbounds %struct.anon, %struct.anon* %131, i32 0, i32 1
  store i32 %127, i32* %132, align 4
  %133 = getelementptr inbounds [100 x i8], [100 x i8]* %2, i64 0, i64 0
  %134 = load i32, i32* %5, align 4
  %135 = sext i32 %134 to i64
  %136 = getelementptr inbounds [1000 x %struct.anon], [1000 x %struct.anon]* %9, i64 0, i64 %135
  %137 = getelementptr inbounds %struct.anon, %struct.anon* %136, i32 0, i32 0
  %138 = getelementptr inbounds [100 x i8], [100 x i8]* %137, i64 0, i64 0
  %139 = call i8* @strcpy(i8* %133, i8* %138) #3
  %140 = load i32, i32* %5, align 4
  %141 = sext i32 %140 to i64
  %142 = getelementptr inbounds [1000 x %struct.anon], [1000 x %struct.anon]* %9, i64 0, i64 %141
  %143 = getelementptr inbounds %struct.anon, %struct.anon* %142, i32 0, i32 0
  %144 = getelementptr inbounds [100 x i8], [100 x i8]* %143, i64 0, i64 0
  %145 = load i32, i32* %5, align 4
  %146 = add nsw i32 %145, 1
  %147 = sext i32 %146 to i64
  %148 = getelementptr inbounds [1000 x %struct.anon], [1000 x %struct.anon]* %9, i64 0, i64 %147
  %149 = getelementptr inbounds %struct.anon, %struct.anon* %148, i32 0, i32 0
  %150 = getelementptr inbounds [100 x i8], [100 x i8]* %149, i64 0, i64 0
  %151 = call i8* @strcpy(i8* %144, i8* %150) #3
  %152 = load i32, i32* %5, align 4
  %153 = add nsw i32 %152, 1
  %154 = sext i32 %153 to i64
  %155 = getelementptr inbounds [1000 x %struct.anon], [1000 x %struct.anon]* %9, i64 0, i64 %154
  %156 = getelementptr inbounds %struct.anon, %struct.anon* %155, i32 0, i32 0
  %157 = getelementptr inbounds [100 x i8], [100 x i8]* %156, i64 0, i64 0
  %158 = getelementptr inbounds [100 x i8], [100 x i8]* %2, i64 0, i64 0
  %159 = call i8* @strcpy(i8* %157, i8* %158) #3
  br label %160

160:                                              ; preds = %111, %98
  br label %161

161:                                              ; preds = %160
  %162 = load i32, i32* %5, align 4
  %163 = add nsw i32 %162, 1
  store i32 %163, i32* %5, align 4
  br label %94

164:                                              ; preds = %94
  br label %165

165:                                              ; preds = %164
  %166 = load i32, i32* %4, align 4
  %167 = add nsw i32 %166, -1
  store i32 %167, i32* %4, align 4
  br label %90

168:                                              ; preds = %90
  store i32 0, i32* %4, align 4
  br label %169

169:                                              ; preds = %180, %168
  %170 = load i32, i32* %4, align 4
  %171 = load i32, i32* %6, align 4
  %172 = icmp slt i32 %170, %171
  br i1 %172, label %173, label %183

173:                                              ; preds = %169
  %174 = load i32, i32* %4, align 4
  %175 = sext i32 %174 to i64
  %176 = getelementptr inbounds [1000 x %struct.anon], [1000 x %struct.anon]* %9, i64 0, i64 %175
  %177 = getelementptr inbounds %struct.anon, %struct.anon* %176, i32 0, i32 0
  %178 = getelementptr inbounds [100 x i8], [100 x i8]* %177, i64 0, i64 0
  %179 = call i32 (i8*, ...) @printf(i8* getelementptr inbounds ([4 x i8], [4 x i8]* @.str.2, i64 0, i64 0), i8* %178)
  br label %180

180:                                              ; preds = %173
  %181 = load i32, i32* %4, align 4
  %182 = add nsw i32 %181, 1
  store i32 %182, i32* %4, align 4
  br label %169

183:                                              ; preds = %169
  store i32 0, i32* %4, align 4
  br label %184

184:                                              ; preds = %203, %183
  %185 = load i32, i32* %4, align 4
  %186 = load i32, i32* %3, align 4
  %187 = icmp slt i32 %185, %186
  br i1 %187, label %188, label %206

188:                                              ; preds = %184
  %189 = load i32, i32* %4, align 4
  %190 = sext i32 %189 to i64
  %191 = getelementptr inbounds [1000 x %struct.anon], [1000 x %struct.anon]* %8, i64 0, i64 %190
  %192 = getelementptr inbounds %struct.anon, %struct.anon* %191, i32 0, i32 2
  %193 = load i32, i32* %192, align 4
  %194 = icmp eq i32 %193, 1
  br i1 %194, label %195, label %196

195:                                              ; preds = %188
  br label %203

196:                                              ; preds = %188
  %197 = load i32, i32* %4, align 4
  %198 = sext i32 %197 to i64
  %199 = getelementptr inbounds [1000 x %struct.anon], [1000 x %struct.anon]* %8, i64 0, i64 %198
  %200 = getelementptr inbounds %struct.anon, %struct.anon* %199, i32 0, i32 0
  %201 = getelementptr inbounds [100 x i8], [100 x i8]* %200, i64 0, i64 0
  %202 = call i32 (i8*, ...) @printf(i8* getelementptr inbounds ([4 x i8], [4 x i8]* @.str.2, i64 0, i64 0), i8* %201)
  br label %203

203:                                              ; preds = %196, %195
  %204 = load i32, i32* %4, align 4
  %205 = add nsw i32 %204, 1
  store i32 %205, i32* %4, align 4
  br label %184

206:                                              ; preds = %184
  ret i32 0
}

declare dso_local i32 @__isoc99_scanf(i8*, ...) #1

; Function Attrs: nounwind
declare dso_local i8* @strcpy(i8*, i8*) #2

declare dso_local i32 @printf(i8*, ...) #1


!llvm.module.flags = !{!0}
!llvm.ident = !{!1}

!0 = !{i32 1, !"wchar_size", i32 4}
!1 = !{!"clang version 10.0.0-4ubuntu1 "}
